target datalayout = "e-m:e-p270:32:32-p271:32:32-p272:64:64-i64:64-i128:128-f80:128-n8:16:32:64-S128"
target triple = "x86_64-pc-linux-gnu"

%struct.PaAlsaStream = type { %struct.PaUtilStreamRepresentation, %struct.PaUtilCpuLoadMeasurer, %struct.PaUtilBufferProcessor, %struct.PaUnixThread, i64, i64, i32, i32, i32, i32, ptr, i32, i32, i32, i32, %struct.PaUnixMutex, i32, double, double, %struct.PaAlsaStreamComponent, %struct.PaAlsaStreamComponent }
%struct.PaUtilStreamRepresentation = type { i64, ptr, ptr, ptr, ptr, ptr, %struct.PaStreamInfo }
%struct.PaStreamInfo = type { i32, double, double, double }
%struct.PaUtilCpuLoadMeasurer = type { double, double, double }
%struct.PaUtilBufferProcessor = type { i64, i64, i32, i32, i32, i32, i64, i32, i32, i32, i32, ptr, ptr, i32, i32, i32, i32, ptr, ptr, i64, i64, ptr, ptr, i64, ptr, ptr, i64, ptr, i64, i32, [2 x i64], [2 x ptr], i32, [2 x i64], [2 x ptr], %struct.PaUtilTriangularDitherGenerator, double, ptr, ptr }
%struct.PaUtilTriangularDitherGenerator = type { i32, i32, i32 }
%struct.PaUnixThread = type { i64, i32, i32, i32, %struct.PaUnixMutex, %union.pthread_cond_t, i32, i32 }
%union.pthread_cond_t = type { %struct.__pthread_cond_s }
%struct.__pthread_cond_s = type { %union.__atomic_wide_counter, %union.__atomic_wide_counter, [2 x i32], [2 x i32], i32, i32, [2 x i32] }
%union.__atomic_wide_counter = type { i64 }
%struct.PaUnixMutex = type { %union.pthread_mutex_t }
%union.pthread_mutex_t = type { %struct.__pthread_mutex_s }
%struct.__pthread_mutex_s = type { i32, i32, i32, i32, i32, i16, i16, %struct.__pthread_internal_list }
%struct.__pthread_internal_list = type { ptr, ptr }
%struct.PaAlsaStreamComponent = type { i64, i32, i32, i32, i32, i32, ptr, i32, i32, i32, i32, ptr, i64, i64, i32, i32, i32, ptr, i64, i32, ptr }

; Function Attrs: nounwind uwtable
define internal void @OnExit(ptr noundef %0) #0 {
  %2 = alloca ptr, align 8
  %3 = alloca ptr, align 8
  store ptr %0, ptr %2, align 8, !tbaa !32
  call void @llvm.lifetime.start.p0(i64 8, ptr %3) #17
  %4 = load ptr, ptr %2, align 8, !tbaa !32
  store ptr %4, ptr %3, align 8, !tbaa !38
  %5 = load ptr, ptr %3, align 8, !tbaa !38
  %6 = getelementptr inbounds nuw %struct.PaAlsaStream, ptr %5, i32 0, i32 1
  call void @PaUtil_ResetCpuLoadMeasurer(ptr noundef %6)
  %7 = load ptr, ptr %3, align 8, !tbaa !38
  %8 = getelementptr inbounds nuw %struct.PaAlsaStream, ptr %7, i32 0, i32 12
  store volatile i32 1, ptr %8, align 4, !tbaa !97
  %9 = load ptr, ptr %3, align 8, !tbaa !38
  %10 = load ptr, ptr %3, align 8, !tbaa !38
  %11 = getelementptr inbounds nuw %struct.PaAlsaStream, ptr %10, i32 0, i32 13
  %12 = load volatile i32, ptr %11, align 8, !tbaa !199
  %13 = call i32 @AlsaStop(ptr noundef %9, i32 noundef %12)
  %14 = load ptr, ptr %3, align 8, !tbaa !38
  %15 = getelementptr inbounds nuw %struct.PaAlsaStream, ptr %14, i32 0, i32 0
  %16 = getelementptr inbounds nuw %struct.PaUtilStreamRepresentation, ptr %15, i32 0, i32 4
  %17 = load ptr, ptr %16, align 8, !tbaa !204
  %18 = icmp ne ptr %17, null
  br i1 %18, label %19, label %28

19:                                               ; preds = %1
  %20 = load ptr, ptr %3, align 8, !tbaa !38
  %21 = getelementptr inbounds nuw %struct.PaAlsaStream, ptr %20, i32 0, i32 0
  %22 = getelementptr inbounds nuw %struct.PaUtilStreamRepresentation, ptr %21, i32 0, i32 4
  %23 = load ptr, ptr %22, align 8, !tbaa !204
  %24 = load ptr, ptr %3, align 8, !tbaa !38
  %25 = getelementptr inbounds nuw %struct.PaAlsaStream, ptr %24, i32 0, i32 0
  %26 = getelementptr inbounds nuw %struct.PaUtilStreamRepresentation, ptr %25, i32 0, i32 5
  %27 = load ptr, ptr %26, align 8, !tbaa !205
  call void %23(ptr noundef %27)
  br label %28

28:                                               ; preds = %19, %1
  %29 = load ptr, ptr %3, align 8, !tbaa !38
  %30 = getelementptr inbounds nuw %struct.PaAlsaStream, ptr %29, i32 0, i32 14
  store volatile i32 0, ptr %30, align 4, !tbaa !94
  call void @llvm.lifetime.end.p0(i64 8, ptr %3) #17
  ret void
}