; Function Attrs: nounwind uwtable
define internal fastcc void @OnExit(ptr noundef %0) unnamed_addr #2 {
  %2 = getelementptr inbounds nuw i8, ptr %0, i64 80
  tail call void @PaUtil_ResetCpuLoadMeasurer(ptr noundef nonnull %2) #25
  %3 = getelementptr inbounds nuw i8, ptr %0, i64 572
  store volatile i32 1, ptr %3, align 4, !tbaa !127
  %4 = getelementptr inbounds nuw i8, ptr %0, i64 576
  %5 = load volatile i32, ptr %4, align 8, !tbaa !126
  %6 = tail call fastcc i32 @AlsaStop(ptr noundef %0)
  %7 = getelementptr inbounds nuw i8, ptr %0, i64 32
  %8 = load ptr, ptr %7, align 8, !tbaa !244
  %.not = icmp eq ptr %8, null
  br i1 %.not, label %12, label %9

9:                                                ; preds = %1
  %10 = getelementptr inbounds nuw i8, ptr %0, i64 40
  %11 = load ptr, ptr %10, align 8, !tbaa !245
  tail call void %8(ptr noundef %11) #25
  br label %12

12:                                               ; preds = %9, %1
  %13 = getelementptr inbounds nuw i8, ptr %0, i64 580
  store volatile i32 0, ptr %13, align 4, !tbaa !124
  ret void
}